target datalayout = "e-m:e-p270:32:32-p271:32:32-p272:64:64-i64:64-i128:128-f80:128-n8:16:32:64-S128"
target triple = "x86_64-pc-linux-gnu"

%struct.ibf_load = type { ptr, i64, %struct.ibf_load_buffer, i64, ptr, i64, ptr }
%struct.ibf_load_buffer = type { ptr, i32, i64, i32, i32 }
%struct.ibf_object_struct_range = type { i64, i64, i64, i64, i32 }

@rb_eIndexError = external global i64, align 8
@.str.241 = private unnamed_addr constant [32 x i8] c"object offset out of range: %zd\00", align 1

; Function Attrs: nounwind sspstrong uwtable
define internal ptr @ibf_load_check_offset(ptr noundef %0, i64 noundef %1) #0 {
  %3 = alloca ptr, align 8
  %4 = alloca i64, align 8
  store ptr %0, ptr %3, align 8, !tbaa !253
  store i64 %1, ptr %4, align 8, !tbaa !7
  %5 = load i64, ptr %4, align 8, !tbaa !7
  %6 = load ptr, ptr %3, align 8, !tbaa !253
  %7 = getelementptr inbounds nuw %struct.ibf_load, ptr %6, i32 0, i32 6
  %8 = load ptr, ptr %7, align 8, !tbaa !288
  %9 = getelementptr inbounds nuw %struct.ibf_load_buffer, ptr %8, i32 0, i32 1
  %10 = load i32, ptr %9, align 8, !tbaa !1348
  %11 = zext i32 %10 to i64
  %12 = icmp uge i64 %5, %11
  br i1 %12, label %13, label %16

13:                                               ; preds = %2
  %14 = load i64, ptr @rb_eIndexError, align 8, !tbaa !7
  %15 = load i64, ptr %4, align 8, !tbaa !7
  call void (i64, ptr, ...) @rb_raise(i64 noundef %14, ptr noundef @.str.241, i64 noundef %15) #36
  unreachable

16:                                               ; preds = %2
  %17 = load ptr, ptr %3, align 8, !tbaa !253
  %18 = getelementptr inbounds nuw %struct.ibf_load, ptr %17, i32 0, i32 6
  %19 = load ptr, ptr %18, align 8, !tbaa !288
  %20 = getelementptr inbounds nuw %struct.ibf_load_buffer, ptr %19, i32 0, i32 0
  %21 = load ptr, ptr %20, align 8, !tbaa !1347
  %22 = load i64, ptr %4, align 8, !tbaa !7
  %23 = getelementptr i8, ptr %21, i64 %22
  ret ptr %23
}

; Function Attrs: nounwind sspstrong uwtable
define internal i64 @ibf_load_object_struct(ptr noundef %0, ptr noundef %1, i32 noundef %2) #0 {
  %4 = alloca ptr, align 8
  %5 = alloca ptr, align 8
  %6 = alloca i32, align 4
  %7 = alloca ptr, align 8
  %8 = alloca i64, align 8
  %9 = alloca i64, align 8
  %10 = alloca i64, align 8
  store ptr %0, ptr %4, align 8, !tbaa !253
  store ptr %1, ptr %5, align 8, !tbaa !1369
  store i32 %2, ptr %6, align 4, !tbaa !41
  call void @llvm.lifetime.start.p0(i64 8, ptr %7) #31
  %11 = load ptr, ptr %4, align 8, !tbaa !253
  %12 = load i32, ptr %6, align 4, !tbaa !41
  %13 = sub i32 %12, 1
  %14 = zext i32 %13 to i64
  %15 = udiv i64 %14, 8
  %16 = add i64 %15, 1
  %17 = mul i64 %16, 8
  %18 = call ptr @ibf_load_check_offset(ptr noundef %11, i64 noundef %17)
  store ptr %18, ptr %7, align 8, !tbaa !1375
  call void @llvm.lifetime.start.p0(i64 8, ptr %8) #31
  %19 = load ptr, ptr %4, align 8, !tbaa !253
  %20 = load ptr, ptr %7, align 8, !tbaa !1375
  %21 = getelementptr inbounds nuw %struct.ibf_object_struct_range, ptr %20, i32 0, i32 2
  %22 = load i64, ptr %21, align 8, !tbaa !1342
  %23 = call i64 @ibf_load_object(ptr noundef %19, i64 noundef %22)
  store i64 %23, ptr %8, align 8, !tbaa !7
  call void @llvm.lifetime.start.p0(i64 8, ptr %9) #31
  %24 = load ptr, ptr %4, align 8, !tbaa !253
  %25 = load ptr, ptr %7, align 8, !tbaa !1375
  %26 = getelementptr inbounds nuw %struct.ibf_object_struct_range, ptr %25, i32 0, i32 3
  %27 = load i64, ptr %26, align 8, !tbaa !1343
  %28 = call i64 @ibf_load_object(ptr noundef %24, i64 noundef %27)
  store i64 %28, ptr %9, align 8, !tbaa !7
  call void @llvm.lifetime.start.p0(i64 8, ptr %10) #31
  %29 = load i64, ptr %8, align 8, !tbaa !7
  %30 = load i64, ptr %9, align 8, !tbaa !7
  %31 = load ptr, ptr %7, align 8, !tbaa !1375
  %32 = getelementptr inbounds nuw %struct.ibf_object_struct_range, ptr %31, i32 0, i32 4
  %33 = load i32, ptr %32, align 8, !tbaa !1377
  %34 = call i64 @rb_range_new(i64 noundef %29, i64 noundef %30, i32 noundef %33)
  store i64 %34, ptr %10, align 8, !tbaa !7
  %35 = load ptr, ptr %5, align 8, !tbaa !1369
  %36 = load i8, ptr %35, align 4
  %37 = lshr i8 %36, 7
  %38 = zext i8 %37 to i32
  %39 = icmp ne i32 %38, 0
  br i1 %39, label %40, label %43

40:                                               ; preds = %3
  %41 = load i64, ptr %10, align 8, !tbaa !7
  %42 = call i64 @rb_obj_hide(i64 noundef %41)
  br label %43

43:                                               ; preds = %40, %3
  %44 = load ptr, ptr %5, align 8, !tbaa !1369
  %45 = load i8, ptr %44, align 4
  %46 = lshr i8 %45, 6
  %47 = and i8 %46, 1
  %48 = zext i8 %47 to i32
  %49 = icmp ne i32 %48, 0
  br i1 %49, label %50, label %53

50:                                               ; preds = %43
  %51 = load i64, ptr %10, align 8, !tbaa !7
  %52 = call i64 @rb_obj_freeze(i64 noundef %51)
  br label %53

53:                                               ; preds = %50, %43
  %54 = load i64, ptr %10, align 8, !tbaa !7
  call void @llvm.lifetime.end.p0(i64 8, ptr %10) #31
  call void @llvm.lifetime.end.p0(i64 8, ptr %9) #31
  call void @llvm.lifetime.end.p0(i64 8, ptr %8) #31
  call void @llvm.lifetime.end.p0(i64 8, ptr %7) #31
  ret i64 %54
}