; Function Attrs: nounwind sspstrong uwtable
define internal i64 @ibf_load_object_struct(ptr noundef %0, ptr noundef readonly captures(none) %1, i32 noundef %2) #1 {
  %4 = add i32 %2, -1
  %5 = lshr i32 %4, 3
  %narrow = add nuw nsw i32 %5, 1
  %6 = zext nneg i32 %narrow to i64
  %7 = shl nuw nsw i64 %6, 3
  %8 = getelementptr i8, ptr %0, i64 72
  %.val = load ptr, ptr %8, align 8, !tbaa !344
  %9 = getelementptr inbounds nuw i8, ptr %.val, i64 8
  %10 = load i32, ptr %9, align 8, !tbaa !346
  %11 = zext i32 %10 to i64
  %.not.i = icmp samesign ult i64 %7, %11
  br i1 %.not.i, label %ibf_load_check_offset.exit, label %12

12:                                               ; preds = %3
  %13 = load i64, ptr @rb_eIndexError, align 8, !tbaa !37
  tail call void (i64, ptr, ...) @rb_raise(i64 noundef %13, ptr noundef nonnull @.str.241, i64 noundef range(i64 8, 4294967297) %7) #42
  unreachable

ibf_load_check_offset.exit:                       ; preds = %3
  %14 = load ptr, ptr %.val, align 8, !tbaa !345
  %15 = getelementptr i8, ptr %14, i64 %7
  %16 = getelementptr inbounds nuw i8, ptr %15, i64 16
  %17 = load i64, ptr %16, align 8, !tbaa !1127
  %18 = tail call fastcc i64 @ibf_load_object(ptr noundef nonnull %0, i64 noundef %17)
  %19 = getelementptr inbounds nuw i8, ptr %15, i64 24
  %20 = load i64, ptr %19, align 8, !tbaa !1128
  %21 = tail call fastcc i64 @ibf_load_object(ptr noundef nonnull %0, i64 noundef %20)
  %22 = getelementptr inbounds nuw i8, ptr %15, i64 32
  %23 = load i32, ptr %22, align 8, !tbaa !1136
  %24 = tail call i64 @rb_range_new(i64 noundef %18, i64 noundef %21, i32 noundef %23) #38
  %25 = load i8, ptr %1, align 4
  %.not = icmp sgt i8 %25, -1
  br i1 %.not, label %28, label %26

26:                                               ; preds = %ibf_load_check_offset.exit
  %27 = tail call i64 @rb_obj_hide(i64 noundef %24) #38
  %.pre = load i8, ptr %1, align 4
  br label %28

28:                                               ; preds = %26, %ibf_load_check_offset.exit
  %29 = phi i8 [ %.pre, %26 ], [ %25, %ibf_load_check_offset.exit ]
  %30 = and i8 %29, 64
  %.not13 = icmp eq i8 %30, 0
  br i1 %.not13, label %33, label %31

31:                                               ; preds = %28
  %32 = tail call i64 @rb_obj_freeze(i64 noundef %24) #38
  br label %33

33:                                               ; preds = %31, %28
  ret i64 %24
}